; Function Attrs: mustprogress uwtable
define void @_ZN5arrow2io9IOContextC2EPNS_10MemoryPoolENS_9StopTokenE(ptr nocapture noundef nonnull writeonly align 8 dereferenceable(40) %this, ptr noundef %pool, ptr nocapture noundef %stop_token) unnamed_addr #0 align 2 personality ptr @__gxx_personality_v0 {
entry:
  %0 = load atomic i8, ptr @_ZGVZN5arrow2io8internal15GetIOThreadPoolEvE4pool acquire, align 8
  %guard.uninitialized.i = icmp eq i8 %0, 0
  br i1 %guard.uninitialized.i, label %init.check.i, label %_ZN5arrow9StopTokenD2Ev.exit, !prof !4

init.check.i:                                     ; preds = %entry
  %1 = tail call i32 @__cxa_guard_acquire(ptr nonnull @_ZGVZN5arrow2io8internal15GetIOThreadPoolEvE4pool) #28
  %tobool.not.i = icmp eq i32 %1, 0
  br i1 %tobool.not.i, label %_ZN5arrow9StopTokenD2Ev.exit, label %init.i

init.i:                                           ; preds = %init.check.i
  invoke fastcc void @_ZN5arrow2io8internal12_GLOBAL__N_116MakeIOThreadPoolEv()
          to label %invoke.cont.i unwind label %lpad.i

invoke.cont.i:                                    ; preds = %init.i
  %2 = tail call i32 @__cxa_atexit(ptr nonnull @_ZNSt10shared_ptrIN5arrow8internal10ThreadPoolEED2Ev, ptr nonnull @_ZZN5arrow2io8internal15GetIOThreadPoolEvE4pool, ptr nonnull @__dso_handle) #28
  tail call void @__cxa_guard_release(ptr nonnull @_ZGVZN5arrow2io8internal15GetIOThreadPoolEvE4pool) #28
  br label %_ZN5arrow9StopTokenD2Ev.exit

lpad.i:                                           ; preds = %init.i
  %3 = landingpad { ptr, i32 }
          cleanup
  tail call void @__cxa_guard_abort(ptr nonnull @_ZGVZN5arrow2io8internal15GetIOThreadPoolEvE4pool) #28
  resume { ptr, i32 } %3

_ZN5arrow9StopTokenD2Ev.exit:                     ; preds = %invoke.cont.i, %init.check.i, %entry
  %4 = load ptr, ptr @_ZZN5arrow2io8internal15GetIOThreadPoolEvE4pool, align 8
  %executor_.i = getelementptr inbounds i8, ptr %this, i64 8
  %external_id_.i = getelementptr inbounds i8, ptr %this, i64 16
  %stop_token_.i = getelementptr inbounds i8, ptr %this, i64 24
  %5 = load <2 x ptr>, ptr %stop_token, align 8
  tail call void @llvm.memset.p0.i64(ptr noundef nonnull align 8 dereferenceable(16) %stop_token, i8 0, i64 16, i1 false)
  store ptr %pool, ptr %this, align 8
  store ptr %4, ptr %executor_.i, align 8
  store i64 -1, ptr %external_id_.i, align 8
  store <2 x ptr> %5, ptr %stop_token_.i, align 8
  ret void
}